; Function Attrs: mustprogress nounwind uwtable
define internal void @_ZN5arrow7compute8internal12_GLOBAL__N_116CastMetaFunctionD2Ev(ptr noundef nonnull align 8 dereferenceable(192) %this) unnamed_addr #0 align 2 personality ptr @__gxx_personality_v0 {
entry:
  store ptr getelementptr inbounds ({ [11 x ptr] }, ptr @_ZTVN5arrow7compute8FunctionE, i64 0, i32 0, i64 2), ptr %this, align 8
  %options_class.i.i.i = getelementptr inbounds i8, ptr %this, i64 144
  tail call void @_ZNSt7__cxx1112basic_stringIcSt11char_traitsIcESaIcEED1Ev(ptr noundef nonnull align 8 dereferenceable(32) %options_class.i.i.i) #21
  %arg_names.i.i.i = getelementptr inbounds i8, ptr %this, i64 120
  %0 = load ptr, ptr %arg_names.i.i.i, align 8
  %_M_finish.i.i.i.i = getelementptr inbounds i8, ptr %this, i64 128
  %1 = load ptr, ptr %_M_finish.i.i.i.i, align 8
  %cmp.not3.i.i.i.i.i.i.i = icmp eq ptr %0, %1
  br i1 %cmp.not3.i.i.i.i.i.i.i, label %invoke.cont.i.i.i.i, label %for.body.i.i.i.i.i.i.i

for.body.i.i.i.i.i.i.i:                           ; preds = %entry, %for.body.i.i.i.i.i.i.i
  %__first.addr.04.i.i.i.i.i.i.i = phi ptr [ %incdec.ptr.i.i.i.i.i.i.i, %for.body.i.i.i.i.i.i.i ], [ %0, %entry ]
  tail call void @_ZNSt7__cxx1112basic_stringIcSt11char_traitsIcESaIcEED1Ev(ptr noundef nonnull align 8 dereferenceable(32) %__first.addr.04.i.i.i.i.i.i.i) #21
  %incdec.ptr.i.i.i.i.i.i.i = getelementptr inbounds i8, ptr %__first.addr.04.i.i.i.i.i.i.i, i64 32
  %cmp.not.i.i.i.i.i.i.i = icmp eq ptr %incdec.ptr.i.i.i.i.i.i.i, %1
  br i1 %cmp.not.i.i.i.i.i.i.i, label %invoke.contthread-pre-split.i.i.i.i, label %for.body.i.i.i.i.i.i.i, !llvm.loop !4

invoke.contthread-pre-split.i.i.i.i:              ; preds = %for.body.i.i.i.i.i.i.i
  %.pr.i.i.i.i = load ptr, ptr %arg_names.i.i.i, align 8
  br label %invoke.cont.i.i.i.i

invoke.cont.i.i.i.i:                              ; preds = %invoke.contthread-pre-split.i.i.i.i, %entry
  %2 = phi ptr [ %.pr.i.i.i.i, %invoke.contthread-pre-split.i.i.i.i ], [ %0, %entry ]
  %tobool.not.i.i.i.i.i.i = icmp eq ptr %2, null
  br i1 %tobool.not.i.i.i.i.i.i, label %_ZN5arrow7compute12MetaFunctionD2Ev.exit, label %if.then.i.i.i.i.i.i

if.then.i.i.i.i.i.i:                              ; preds = %invoke.cont.i.i.i.i
  tail call void @_ZdlPv(ptr noundef nonnull %2) #23
  br label %_ZN5arrow7compute12MetaFunctionD2Ev.exit

_ZN5arrow7compute12MetaFunctionD2Ev.exit:         ; preds = %invoke.cont.i.i.i.i, %if.then.i.i.i.i.i.i
  %doc_.i.i = getelementptr inbounds i8, ptr %this, i64 56
  %description.i.i.i = getelementptr inbounds i8, ptr %this, i64 88
  tail call void @_ZNSt7__cxx1112basic_stringIcSt11char_traitsIcESaIcEED1Ev(ptr noundef nonnull align 8 dereferenceable(32) %description.i.i.i) #21
  tail call void @_ZNSt7__cxx1112basic_stringIcSt11char_traitsIcESaIcEED1Ev(ptr noundef nonnull align 8 dereferenceable(32) %doc_.i.i) #21
  %name_.i.i = getelementptr inbounds i8, ptr %this, i64 8
  tail call void @_ZNSt7__cxx1112basic_stringIcSt11char_traitsIcESaIcEED1Ev(ptr noundef nonnull align 8 dereferenceable(32) %name_.i.i) #21
  ret void
}